(lp0
S'poi'
p1
aS'shared_receipt_with_poi'
p2
aS'salary'
p3
aS'expenses'
p4
aS'exercised_stock_options'
p5
aS'from_poi_to_this_person'
p6
aS'restricted_stock'
p7
aS'from_this_person_to_poi'
p8
aS'total_stock_value'
p9
aS'other'
p10
aS'bonus'
p11
a.